target datalayout = "e-m:e-p270:32:32-p271:32:32-p272:64:64-i64:64-i128:128-f80:128-n8:16:32:64-S128"
target triple = "x86_64-pc-linux-gnu"

%struct.H5O_shared_t = type { i32, ptr, i32, %union.anon }
%union.anon = type { %struct.H5O_mesg_loc_t }
%struct.H5O_mesg_loc_t = type { i32, i64 }
%struct.H5O_pline_t = type { %struct.H5O_shared_t, i32, i64, i64, ptr }
%struct.H5Z_filter_info_t = type { i32, i32, [12 x i8], ptr, i64, [4 x i32], ptr }
%struct.H5Z_class2_t = type { i32, i32, i32, i32, ptr, ptr, ptr, ptr }

@.str.4 = private unnamed_addr constant [103 x i8] c"generated/home/dtcxzyw/WorkSpace/Projects/compilers/llvm-opt-benchmark/bench/hdf5/hdf5/src/H5Oshared.h\00", align 1
@H5E_OHDR_g = external global i64, align 8
@__func__.H5O__pline_shared_size = private unnamed_addr constant [23 x i8] c"H5O__pline_shared_size\00", align 1
@H5E_CANTGET_g = external global i64, align 8
@.str.17 = private unnamed_addr constant [50 x i8] c"unable to retrieve encoded size of shared message\00", align 1
@.str.18 = private unnamed_addr constant [50 x i8] c"unable to retrieve encoded size of native message\00", align 1

; Function Attrs: nounwind uwtable
define internal i64 @H5O__pline_size(ptr noundef %0, ptr noundef %1) #0 {
  %3 = alloca ptr, align 8
  %4 = alloca ptr, align 8
  %5 = alloca ptr, align 8
  %6 = alloca i64, align 8
  %7 = alloca i64, align 8
  %8 = alloca i64, align 8
  %9 = alloca ptr, align 8
  %10 = alloca ptr, align 8
  store ptr %0, ptr %3, align 8
  store ptr %1, ptr %4, align 8
  %11 = load ptr, ptr %4, align 8
  store ptr %11, ptr %5, align 8
  store i64 0, ptr %7, align 8
  %12 = load ptr, ptr %5, align 8
  %13 = getelementptr inbounds %struct.H5O_pline_t, ptr %12, i32 0, i32 1
  %14 = load i32, ptr %13, align 8
  %15 = icmp eq i32 %14, 1
  %16 = select i1 %15, i32 6, i32 0
  %17 = add nsw i32 2, %16
  %18 = sext i32 %17 to i64
  store i64 %18, ptr %7, align 8
  store i64 0, ptr %6, align 8
  br label %19

19:                                               ; preds = %139, %2
  %20 = load i64, ptr %6, align 8
  %21 = load ptr, ptr %5, align 8
  %22 = getelementptr inbounds %struct.H5O_pline_t, ptr %21, i32 0, i32 3
  %23 = load i64, ptr %22, align 8
  %24 = icmp ult i64 %20, %23
  br i1 %24, label %25, label %142

25:                                               ; preds = %19
  %26 = load ptr, ptr %5, align 8
  %27 = getelementptr inbounds %struct.H5O_pline_t, ptr %26, i32 0, i32 1
  %28 = load i32, ptr %27, align 8
  %29 = icmp ugt i32 %28, 1
  br i1 %29, label %30, label %40

30:                                               ; preds = %25
  %31 = load ptr, ptr %5, align 8
  %32 = getelementptr inbounds %struct.H5O_pline_t, ptr %31, i32 0, i32 4
  %33 = load ptr, ptr %32, align 8
  %34 = load i64, ptr %6, align 8
  %35 = getelementptr inbounds %struct.H5Z_filter_info_t, ptr %33, i64 %34
  %36 = getelementptr inbounds %struct.H5Z_filter_info_t, ptr %35, i32 0, i32 0
  %37 = load i32, ptr %36, align 8
  %38 = icmp slt i32 %37, 256
  br i1 %38, label %39, label %40

39:                                               ; preds = %30
  store i64 0, ptr %8, align 8
  br label %73

40:                                               ; preds = %30, %25
  %41 = load ptr, ptr %5, align 8
  %42 = getelementptr inbounds %struct.H5O_pline_t, ptr %41, i32 0, i32 4
  %43 = load ptr, ptr %42, align 8
  %44 = load i64, ptr %6, align 8
  %45 = getelementptr inbounds %struct.H5Z_filter_info_t, ptr %43, i64 %44
  %46 = getelementptr inbounds %struct.H5Z_filter_info_t, ptr %45, i32 0, i32 3
  %47 = load ptr, ptr %46, align 8
  store ptr %47, ptr %9, align 8
  %48 = icmp eq ptr null, %47
  br i1 %48, label %49, label %63

49:                                               ; preds = %40
  %50 = load ptr, ptr %5, align 8
  %51 = getelementptr inbounds %struct.H5O_pline_t, ptr %50, i32 0, i32 4
  %52 = load ptr, ptr %51, align 8
  %53 = load i64, ptr %6, align 8
  %54 = getelementptr inbounds %struct.H5Z_filter_info_t, ptr %52, i64 %53
  %55 = getelementptr inbounds %struct.H5Z_filter_info_t, ptr %54, i32 0, i32 0
  %56 = load i32, ptr %55, align 8
  %57 = call ptr @H5Z_find(i32 noundef %56)
  store ptr %57, ptr %10, align 8
  %58 = icmp ne ptr %57, null
  br i1 %58, label %59, label %63

59:                                               ; preds = %49
  %60 = load ptr, ptr %10, align 8
  %61 = getelementptr inbounds %struct.H5Z_class2_t, ptr %60, i32 0, i32 4
  %62 = load ptr, ptr %61, align 8
  store ptr %62, ptr %9, align 8
  br label %63

63:                                               ; preds = %59, %49, %40
  %64 = load ptr, ptr %9, align 8
  %65 = icmp ne ptr %64, null
  br i1 %65, label %66, label %70

66:                                               ; preds = %63
  %67 = load ptr, ptr %9, align 8
  %68 = call i64 @strlen(ptr noundef %67) #9
  %69 = add i64 %68, 1
  br label %71

70:                                               ; preds = %63
  br label %71

71:                                               ; preds = %70, %66
  %72 = phi i64 [ %69, %66 ], [ 0, %70 ]
  store i64 %72, ptr %8, align 8
  br label %73

73:                                               ; preds = %71, %39
  %74 = load ptr, ptr %5, align 8
  %75 = getelementptr inbounds %struct.H5O_pline_t, ptr %74, i32 0, i32 1
  %76 = load i32, ptr %75, align 8
  %77 = icmp eq i32 %76, 1
  br i1 %77, label %87, label %78

78:                                               ; preds = %73
  %79 = load ptr, ptr %5, align 8
  %80 = getelementptr inbounds %struct.H5O_pline_t, ptr %79, i32 0, i32 4
  %81 = load ptr, ptr %80, align 8
  %82 = load i64, ptr %6, align 8
  %83 = getelementptr inbounds %struct.H5Z_filter_info_t, ptr %81, i64 %82
  %84 = getelementptr inbounds %struct.H5Z_filter_info_t, ptr %83, i32 0, i32 0
  %85 = load i32, ptr %84, align 8
  %86 = icmp sge i32 %85, 256
  br label %87

87:                                               ; preds = %78, %73
  %88 = phi i1 [ true, %73 ], [ %86, %78 ]
  %89 = select i1 %88, i32 2, i32 0
  %90 = sext i32 %89 to i64
  %91 = add i64 2, %90
  %92 = add i64 %91, 2
  %93 = add i64 %92, 2
  %94 = load ptr, ptr %5, align 8
  %95 = getelementptr inbounds %struct.H5O_pline_t, ptr %94, i32 0, i32 1
  %96 = load i32, ptr %95, align 8
  %97 = icmp eq i32 %96, 1
  br i1 %97, label %98, label %103

98:                                               ; preds = %87
  %99 = load i64, ptr %8, align 8
  %100 = add i64 %99, 7
  %101 = udiv i64 %100, 8
  %102 = mul i64 8, %101
  br label %105

103:                                              ; preds = %87
  %104 = load i64, ptr %8, align 8
  br label %105

105:                                              ; preds = %103, %98
  %106 = phi i64 [ %102, %98 ], [ %104, %103 ]
  %107 = add i64 %93, %106
  %108 = load i64, ptr %7, align 8
  %109 = add i64 %108, %107
  store i64 %109, ptr %7, align 8
  %110 = load ptr, ptr %5, align 8
  %111 = getelementptr inbounds %struct.H5O_pline_t, ptr %110, i32 0, i32 4
  %112 = load ptr, ptr %111, align 8
  %113 = load i64, ptr %6, align 8
  %114 = getelementptr inbounds %struct.H5Z_filter_info_t, ptr %112, i64 %113
  %115 = getelementptr inbounds %struct.H5Z_filter_info_t, ptr %114, i32 0, i32 4
  %116 = load i64, ptr %115, align 8
  %117 = mul i64 %116, 4
  %118 = load i64, ptr %7, align 8
  %119 = add i64 %118, %117
  store i64 %119, ptr %7, align 8
  %120 = load ptr, ptr %5, align 8
  %121 = getelementptr inbounds %struct.H5O_pline_t, ptr %120, i32 0, i32 1
  %122 = load i32, ptr %121, align 8
  %123 = icmp eq i32 %122, 1
  br i1 %123, label %124, label %138

124:                                              ; preds = %105
  %125 = load ptr, ptr %5, align 8
  %126 = getelementptr inbounds %struct.H5O_pline_t, ptr %125, i32 0, i32 4
  %127 = load ptr, ptr %126, align 8
  %128 = load i64, ptr %6, align 8
  %129 = getelementptr inbounds %struct.H5Z_filter_info_t, ptr %127, i64 %128
  %130 = getelementptr inbounds %struct.H5Z_filter_info_t, ptr %129, i32 0, i32 4
  %131 = load i64, ptr %130, align 8
  %132 = urem i64 %131, 2
  %133 = icmp ne i64 %132, 0
  br i1 %133, label %134, label %137

134:                                              ; preds = %124
  %135 = load i64, ptr %7, align 8
  %136 = add i64 %135, 4
  store i64 %136, ptr %7, align 8
  br label %137

137:                                              ; preds = %134, %124
  br label %138

138:                                              ; preds = %137, %105
  br label %139

139:                                              ; preds = %138
  %140 = load i64, ptr %6, align 8
  %141 = add i64 %140, 1
  store i64 %141, ptr %6, align 8
  br label %19

142:                                              ; preds = %19
  %143 = load i64, ptr %7, align 8
  ret i64 %143
}

; Function Attrs: nounwind uwtable
define internal i64 @H5O__pline_shared_size(ptr noundef %0, i1 noundef zeroext %1, ptr noundef %2) #0 {
  %4 = alloca ptr, align 8
  %5 = alloca i8, align 1
  %6 = alloca ptr, align 8
  %7 = alloca ptr, align 8
  %8 = alloca i64, align 8
  %9 = alloca i8, align 1
  store ptr %0, ptr %4, align 8
  %10 = zext i1 %1 to i8
  store i8 %10, ptr %5, align 1
  store ptr %2, ptr %6, align 8
  %11 = load ptr, ptr %6, align 8
  store ptr %11, ptr %7, align 8
  store i64 0, ptr %8, align 8
  store i8 0, ptr %9, align 1
  %12 = load ptr, ptr %7, align 8
  %13 = getelementptr inbounds %struct.H5O_shared_t, ptr %12, i32 0, i32 0
  %14 = load i32, ptr %13, align 8
  %15 = icmp eq i32 %14, 1
  br i1 %15, label %21, label %16

16:                                               ; preds = %3
  %17 = load ptr, ptr %7, align 8
  %18 = getelementptr inbounds %struct.H5O_shared_t, ptr %17, i32 0, i32 0
  %19 = load i32, ptr %18, align 8
  %20 = icmp eq i32 %19, 2
  br i1 %20, label %21, label %22

21:                                               ; preds = %16, %3
  br i1 true, label %23, label %47

22:                                               ; preds = %16
  br i1 false, label %23, label %47

23:                                               ; preds = %22, %21
  %24 = load i8, ptr %5, align 1
  %25 = trunc i8 %24 to i1
  br i1 %25, label %47, label %26

26:                                               ; preds = %23
  %27 = load ptr, ptr %4, align 8
  %28 = load ptr, ptr %7, align 8
  %29 = call i64 @H5O__shared_size(ptr noundef %27, ptr noundef %28)
  store i64 %29, ptr %8, align 8
  %30 = icmp eq i64 0, %29
  br i1 %30, label %31, label %46

31:                                               ; preds = %26
  br label %32

32:                                               ; preds = %31
  br label %33

33:                                               ; preds = %32
  br label %34

34:                                               ; preds = %33
  %35 = load i64, ptr @H5E_OHDR_g, align 8
  %36 = load i64, ptr @H5E_CANTGET_g, align 8
  %37 = call i32 (ptr, ptr, i32, i64, i64, ptr, ...) @H5E_printf_stack(ptr noundef @.str.4, ptr noundef @__func__.H5O__pline_shared_size, i32 noundef 167, i64 noundef %35, i64 noundef %36, ptr noundef @.str.17)
  br label %38

38:                                               ; preds = %34
  store i8 1, ptr %9, align 1
  %39 = load i8, ptr %9, align 1
  %40 = trunc i8 %39 to i1
  %41 = zext i1 %40 to i8
  store i8 %41, ptr %9, align 1
  br label %42

42:                                               ; preds = %38
  br label %43

43:                                               ; preds = %42
  store i64 0, ptr %8, align 8
  br label %69

44:                                               ; No predecessors!
  br label %45

45:                                               ; preds = %44
  br label %46

46:                                               ; preds = %45, %26
  br label %68

47:                                               ; preds = %23, %22, %21
  %48 = load ptr, ptr %4, align 8
  %49 = load ptr, ptr %6, align 8
  %50 = call i64 @H5O__pline_size(ptr noundef %48, ptr noundef %49)
  store i64 %50, ptr %8, align 8
  %51 = icmp eq i64 0, %50
  br i1 %51, label %52, label %67

52:                                               ; preds = %47
  br label %53

53:                                               ; preds = %52
  br label %54

54:                                               ; preds = %53
  br label %55

55:                                               ; preds = %54
  %56 = load i64, ptr @H5E_OHDR_g, align 8
  %57 = load i64, ptr @H5E_CANTGET_g, align 8
  %58 = call i32 (ptr, ptr, i32, i64, i64, ptr, ...) @H5E_printf_stack(ptr noundef @.str.4, ptr noundef @__func__.H5O__pline_shared_size, i32 noundef 172, i64 noundef %56, i64 noundef %57, ptr noundef @.str.18)
  br label %59

59:                                               ; preds = %55
  store i8 1, ptr %9, align 1
  %60 = load i8, ptr %9, align 1
  %61 = trunc i8 %60 to i1
  %62 = zext i1 %61 to i8
  store i8 %62, ptr %9, align 1
  br label %63

63:                                               ; preds = %59
  br label %64

64:                                               ; preds = %63
  store i64 0, ptr %8, align 8
  br label %69

65:                                               ; No predecessors!
  br label %66

66:                                               ; preds = %65
  br label %67

67:                                               ; preds = %66, %47
  br label %68

68:                                               ; preds = %67, %46
  br label %69

69:                                               ; preds = %68, %64, %43
  %70 = load i64, ptr %8, align 8
  ret i64 %70
}