; Function Attrs: nounwind uwtable
define internal i64 @H5O__pline_shared_size(ptr noundef %0, i1 noundef zeroext %1, ptr noundef %2) #0 {
  %4 = load i32, ptr %2, align 8
  %5 = add i32 %4, -3
  %switch = icmp ult i32 %5, -2
  %brmerge = or i1 %switch, %1
  br i1 %brmerge, label %13, label %6

6:                                                ; preds = %3
  %7 = tail call i64 @H5O__shared_size(ptr noundef %0, ptr noundef nonnull %2) #11
  %8 = icmp eq i64 %7, 0
  br i1 %8, label %9, label %H5O__pline_size.exit.thread

9:                                                ; preds = %6
  %10 = load i64, ptr @H5E_OHDR_g, align 8
  %11 = load i64, ptr @H5E_CANTGET_g, align 8
  %12 = tail call i32 (ptr, ptr, i32, i64, i64, ptr, ...) @H5E_printf_stack(ptr noundef nonnull @.str.4, ptr noundef nonnull @__func__.H5O__pline_shared_size, i32 noundef 167, i64 noundef %10, i64 noundef %11, ptr noundef nonnull @.str.17) #11
  br label %H5O__pline_size.exit.thread

13:                                               ; preds = %3
  %14 = getelementptr inbounds i8, ptr %2, i64 40
  %15 = load i32, ptr %14, align 8
  %16 = icmp eq i32 %15, 1
  %17 = select i1 %16, i64 8, i64 2
  %18 = getelementptr inbounds i8, ptr %2, i64 56
  %19 = load i64, ptr %18, align 8
  %.not11.i = icmp eq i64 %19, 0
  br i1 %.not11.i, label %H5O__pline_size.exit.thread, label %.lr.ph.i

.lr.ph.i:                                         ; preds = %13
  %20 = getelementptr inbounds i8, ptr %2, i64 64
  %.pre.pre.i = load ptr, ptr %20, align 8
  br label %21

21:                                               ; preds = %47, %.lr.ph.i
  %.pre.i = phi ptr [ %.pre.pre.i, %.lr.ph.i ], [ %.pre12.pre.i, %47 ]
  %22 = phi i32 [ %15, %.lr.ph.i ], [ %41, %47 ]
  %.010.i = phi i64 [ 0, %.lr.ph.i ], [ %61, %47 ]
  %.0319.i = phi i64 [ %17, %.lr.ph.i ], [ %.1.i, %47 ]
  %23 = icmp ugt i32 %22, 1
  br i1 %23, label %24, label %28

24:                                               ; preds = %21
  %25 = getelementptr inbounds %struct.H5Z_filter_info_t, ptr %.pre.i, i64 %.010.i
  %26 = load i32, ptr %25, align 8
  %27 = icmp slt i32 %26, 256
  br i1 %27, label %.thread.i, label %28

28:                                               ; preds = %24, %21
  %29 = getelementptr inbounds %struct.H5Z_filter_info_t, ptr %.pre.i, i64 %.010.i
  %30 = getelementptr inbounds i8, ptr %29, i64 24
  %31 = load ptr, ptr %30, align 8
  %32 = icmp eq ptr %31, null
  br i1 %32, label %33, label %.thread3.i

33:                                               ; preds = %28
  %34 = load i32, ptr %29, align 8
  %35 = tail call ptr @H5Z_find(i32 noundef %34) #11
  %.not.i = icmp eq ptr %35, null
  br i1 %.not.i, label %.thread.i, label %36

36:                                               ; preds = %33
  %37 = getelementptr inbounds i8, ptr %35, i64 16
  %38 = load ptr, ptr %37, align 8
  %.not35.i = icmp eq ptr %38, null
  br i1 %.not35.i, label %.thread.i, label %.thread3.i

.thread3.i:                                       ; preds = %36, %28
  %.0296.i = phi ptr [ %38, %36 ], [ %31, %28 ]
  %39 = tail call i64 @strlen(ptr noundef nonnull dereferenceable(1) %.0296.i) #13
  %40 = add i64 %39, 1
  br label %.thread.i

.thread.i:                                        ; preds = %.thread3.i, %36, %33, %24
  %.030.i = phi i64 [ 0, %24 ], [ %40, %.thread3.i ], [ 0, %36 ], [ 0, %33 ]
  %41 = load i32, ptr %14, align 8
  %42 = icmp eq i32 %41, 1
  %.pre12.pre.i = load ptr, ptr %20, align 8
  br i1 %42, label %.thread7.i, label %43

43:                                               ; preds = %.thread.i
  %44 = getelementptr inbounds %struct.H5Z_filter_info_t, ptr %.pre12.pre.i, i64 %.010.i
  %45 = load i32, ptr %44, align 8
  %.fr.i = freeze i32 %45
  %46 = icmp sgt i32 %.fr.i, 255
  br i1 %46, label %.thread7.i, label %47

.thread7.i:                                       ; preds = %43, %.thread.i
  br label %47

47:                                               ; preds = %.thread7.i, %43
  %48 = phi i64 [ 8, %.thread7.i ], [ 6, %43 ]
  %49 = add i64 %.030.i, 7
  %50 = and i64 %49, -8
  %51 = select i1 %42, i64 %50, i64 %.030.i
  %52 = getelementptr inbounds %struct.H5Z_filter_info_t, ptr %.pre12.pre.i, i64 %.010.i, i32 4
  %53 = load i64, ptr %52, align 8
  %54 = shl i64 %53, 2
  %55 = add i64 %51, %.0319.i
  %56 = add i64 %55, %48
  %57 = add i64 %56, %54
  %58 = icmp ne i32 %41, 1
  %59 = and i64 %53, 1
  %.not36.i = icmp eq i64 %59, 0
  %or.cond.i = select i1 %58, i1 true, i1 %.not36.i
  %60 = add i64 %57, 4
  %.1.i = select i1 %or.cond.i, i64 %57, i64 %60
  %61 = add nuw i64 %.010.i, 1
  %62 = load i64, ptr %18, align 8
  %63 = icmp ult i64 %61, %62
  br i1 %63, label %21, label %H5O__pline_size.exit

H5O__pline_size.exit:                             ; preds = %47
  %64 = icmp eq i64 %.1.i, 0
  br i1 %64, label %65, label %H5O__pline_size.exit.thread

65:                                               ; preds = %H5O__pline_size.exit
  %66 = load i64, ptr @H5E_OHDR_g, align 8
  %67 = load i64, ptr @H5E_CANTGET_g, align 8
  %68 = tail call i32 (ptr, ptr, i32, i64, i64, ptr, ...) @H5E_printf_stack(ptr noundef nonnull @.str.4, ptr noundef nonnull @__func__.H5O__pline_shared_size, i32 noundef 172, i64 noundef %66, i64 noundef %67, ptr noundef nonnull @.str.18) #11
  br label %H5O__pline_size.exit.thread

H5O__pline_size.exit.thread:                      ; preds = %13, %6, %H5O__pline_size.exit, %65, %9
  %.0 = phi i64 [ 0, %65 ], [ %.1.i, %H5O__pline_size.exit ], [ 0, %9 ], [ %7, %6 ], [ %17, %13 ]
  ret i64 %.0
}